; Function Attrs: mustprogress nounwind uwtable
define internal fastcc void @_ZN8nlohmann16json_abi_v3_11_36detail5lexerINS0_10basic_jsonISt3mapSt6vectorNSt7__cxx1112basic_stringIcSt11char_traitsIcESaIcEEEblmdSaNS0_14adl_serializerES5_IhSaIhEEvEENS1_22iterator_input_adapterIZN12_GLOBAL__N_119DOCTEST_ANON_FUNC_8EvE10MyIteratorEEED2Ev(ptr noundef nonnull align 8 dereferenceable(148) %this) unnamed_addr #4 align 2 personality ptr @__gxx_personality_v0 {
entry:
  %token_buffer = getelementptr inbounds i8, ptr %this, i64 80
  tail call void @_ZNSt7__cxx1112basic_stringIcSt11char_traitsIcESaIcEED1Ev(ptr noundef nonnull align 8 dereferenceable(32) %token_buffer) #21
  %token_string = getelementptr inbounds i8, ptr %this, i64 56
  %0 = load ptr, ptr %token_string, align 8
  %tobool.not.i.i.i = icmp eq ptr %0, null
  br i1 %tobool.not.i.i.i, label %_ZNSt6vectorIcSaIcEED2Ev.exit, label %if.then.i.i.i

if.then.i.i.i:                                    ; preds = %entry
  tail call void @_ZdlPv(ptr noundef nonnull %0) #23
  br label %_ZNSt6vectorIcSaIcEED2Ev.exit

_ZNSt6vectorIcSaIcEED2Ev.exit:                    ; preds = %entry, %if.then.i.i.i
  tail call void @_ZNSaIcED2Ev(ptr noundef nonnull align 1 dereferenceable(1) %token_string) #21
  ret void
}